; Function Attrs: nofree norecurse nosync nounwind memory(read, argmem: readwrite, inaccessiblemem: none) uwtable
define i32 @fdt_next_node(ptr noundef captures(address) %0, i32 noundef %1, ptr noundef captures(address_is_null) %2) local_unnamed_addr #3 {
  %4 = alloca i32, align 4
  %5 = alloca i32, align 4
  call void @llvm.lifetime.start.p0(i64 4, ptr nonnull %5) #10
  store i32 0, ptr %5, align 4, !tbaa !6
  %6 = icmp sgt i32 %1, -1
  br i1 %6, label %7, label %13

7:                                                ; preds = %3
  call void @llvm.lifetime.start.p0(i64 4, ptr nonnull %4)
  %8 = and i32 %1, 3
  %or.cond.i = icmp eq i32 %8, 0
  br i1 %or.cond.i, label %9, label %fdt_check_node_offset_.exit.thread

9:                                                ; preds = %7
  %10 = call i32 @fdt_next_tag(ptr noundef %0, i32 noundef %1, ptr noundef nonnull %4)
  %.not2.i = icmp eq i32 %10, 1
  br i1 %.not2.i, label %fdt_check_node_offset_.exit, label %fdt_check_node_offset_.exit.thread

fdt_check_node_offset_.exit.thread:               ; preds = %7, %9
  call void @llvm.lifetime.end.p0(i64 4, ptr nonnull %4)
  br label %.thread

fdt_check_node_offset_.exit:                      ; preds = %9
  %11 = load i32, ptr %4, align 4
  call void @llvm.lifetime.end.p0(i64 4, ptr nonnull %4)
  store i32 %11, ptr %5, align 4, !tbaa !6
  %12 = icmp slt i32 %11, 0
  br i1 %12, label %.thread, label %13

13:                                               ; preds = %fdt_check_node_offset_.exit, %3
  %14 = phi i32 [ %11, %fdt_check_node_offset_.exit ], [ 0, %3 ]
  %.not18 = icmp eq ptr %2, null
  br i1 %.not18, label %.split.us, label %.split

.split.us:                                        ; preds = %13, %.split.us
  %15 = load i32, ptr %5, align 4, !tbaa !6
  %16 = call i32 @fdt_next_tag(ptr noundef %0, i32 noundef %15, ptr noundef nonnull %5)
  switch i32 %16, label %.split.us [
    i32 9, label %.split25.us
    i32 1, label %.split27.us
  ], !llvm.loop !10

.split:                                           ; preds = %13, %.backedge
  %17 = phi i32 [ %.pre, %.backedge ], [ %14, %13 ]
  %18 = call i32 @fdt_next_tag(ptr noundef %0, i32 noundef %17, ptr noundef nonnull %5)
  switch i32 %18, label %.backedge [
    i32 9, label %.split25.us
    i32 2, label %22
    i32 1, label %.split27.us
  ]

.backedge:                                        ; preds = %22, %.split
  %.pre = load i32, ptr %5, align 4, !tbaa !6
  br label %.split, !llvm.loop !10

.split27.us:                                      ; preds = %.split, %.split.us
  %.us-phi = phi i32 [ %15, %.split.us ], [ %17, %.split ]
  br i1 %.not18, label %.thread, label %19

19:                                               ; preds = %.split27.us
  %20 = load i32, ptr %2, align 4, !tbaa !6
  %21 = add nsw i32 %20, 1
  store i32 %21, ptr %2, align 4, !tbaa !6
  br label %.thread

22:                                               ; preds = %.split
  %23 = load i32, ptr %2, align 4, !tbaa !6
  %24 = add nsw i32 %23, -1
  store i32 %24, ptr %2, align 4, !tbaa !6
  %25 = icmp slt i32 %23, 1
  br i1 %25, label %26, label %.backedge

26:                                               ; preds = %22
  %27 = load i32, ptr %5, align 4, !tbaa !6
  br label %.thread

.split25.us:                                      ; preds = %.split, %.split.us
  %28 = load i32, ptr %5, align 4, !tbaa !6
  %29 = icmp sgt i32 %28, -1
  br i1 %29, label %.thread, label %30

30:                                               ; preds = %.split25.us
  %31 = icmp ne i32 %28, -8
  %32 = icmp ne ptr %2, null
  %or.cond = or i1 %32, %31
  %spec.select = select i1 %or.cond, i32 %28, i32 -1
  br label %.thread

.thread:                                          ; preds = %.split27.us, %19, %fdt_check_node_offset_.exit.thread, %30, %.split25.us, %fdt_check_node_offset_.exit, %26
  %.0 = phi i32 [ %27, %26 ], [ %11, %fdt_check_node_offset_.exit ], [ -1, %.split25.us ], [ %spec.select, %30 ], [ -4, %fdt_check_node_offset_.exit.thread ], [ %.us-phi, %19 ], [ %.us-phi, %.split27.us ]
  call void @llvm.lifetime.end.p0(i64 4, ptr nonnull %5) #10
  ret i32 %.0
}